; ModuleID = '54/227.c'
source_filename = "54/227.c"
target datalayout = "e-m:e-p270:32:32-p271:32:32-p272:64:64-i64:64-f80:128-n8:16:32:64-S128"
target triple = "x86_64-pc-linux-gnu"

@.str = private unnamed_addr constant [5 x i8] c"%d%d\00", align 1
@.str.1 = private unnamed_addr constant [4 x i8] c"%d\0A\00", align 1

; Function Attrs: noinline nounwind uwtable
define dso_local void @main() #0 {
  %1 = alloca i32, align 4
  %2 = alloca i32, align 4
  %3 = alloca i32, align 4
  %4 = alloca i32, align 4
  %5 = alloca i32, align 4
  %6 = call i32 (i8*, ...) @__isoc99_scanf(i8* getelementptr inbounds ([5 x i8], [5 x i8]* @.str, i64 0, i64 0), i32* %4, i32* %5)
  store i32 0, i32* %3, align 4
  br label %7

7:                                                ; preds = %0, %44
  %8 = load i32, i32* %4, align 4
  %9 = sub nsw i32 %8, 1
  %10 = load i32, i32* %3, align 4
  %11 = add nsw i32 %10, %9
  store i32 %11, i32* %3, align 4
  %12 = load i32, i32* %3, align 4
  store i32 %12, i32* %2, align 4
  store i32 0, i32* %1, align 4
  br label %13

13:                                               ; preds = %34, %7
  %14 = load i32, i32* %1, align 4
  %15 = load i32, i32* %4, align 4
  %16 = icmp slt i32 %14, %15
  br i1 %16, label %17, label %23

17:                                               ; preds = %13
  %18 = load i32, i32* %2, align 4
  %19 = load i32, i32* %4, align 4
  %20 = sub nsw i32 %19, 1
  %21 = srem i32 %18, %20
  %22 = icmp eq i32 %21, 0
  br label %23

23:                                               ; preds = %17, %13
  %24 = phi i1 [ false, %13 ], [ %22, %17 ]
  br i1 %24, label %25, label %37

25:                                               ; preds = %23
  %26 = load i32, i32* %2, align 4
  %27 = load i32, i32* %4, align 4
  %28 = sub nsw i32 %27, 1
  %29 = sdiv i32 %26, %28
  %30 = load i32, i32* %4, align 4
  %31 = mul nsw i32 %29, %30
  %32 = load i32, i32* %5, align 4
  %33 = add nsw i32 %31, %32
  store i32 %33, i32* %2, align 4
  br label %34

34:                                               ; preds = %25
  %35 = load i32, i32* %1, align 4
  %36 = add nsw i32 %35, 1
  store i32 %36, i32* %1, align 4
  br label %13

37:                                               ; preds = %23
  %38 = load i32, i32* %1, align 4
  %39 = load i32, i32* %4, align 4
  %40 = icmp sge i32 %38, %39
  br i1 %40, label %41, label %44

41:                                               ; preds = %37
  %42 = load i32, i32* %2, align 4
  %43 = call i32 (i8*, ...) @printf(i8* getelementptr inbounds ([4 x i8], [4 x i8]* @.str.1, i64 0, i64 0), i32 %42)
  br label %45

44:                                               ; preds = %37
  br label %7

45:                                               ; preds = %41
  ret void
}

declare dso_local i32 @__isoc99_scanf(i8*, ...) #1

declare dso_local i32 @printf(i8*, ...) #1


!llvm.module.flags = !{!0}
!llvm.ident = !{!1}

!0 = !{i32 1, !"wchar_size", i32 4}
!1 = !{!"clang version 10.0.0-4ubuntu1 "}
